; Function Attrs: nounwind uwtable
define hidden noundef i32 @phpdbg_rebuild_symtable() local_unnamed_addr #3 {
  %1 = load ptr, ptr getelementptr inbounds (%struct._zend_executor_globals, ptr @executor_globals, i64 0, i32 17), align 8
  %.not = icmp eq ptr %1, null
  br i1 %.not, label %.sink.split, label %2

2:                                                ; preds = %0
  %3 = getelementptr inbounds i8, ptr %1, i64 24
  %4 = load ptr, ptr %3, align 8
  %.not2 = icmp eq ptr %4, null
  br i1 %.not2, label %.sink.split, label %5

5:                                                ; preds = %2
  %6 = tail call ptr @zend_rebuild_symbol_table() #25
  %.not3 = icmp eq ptr %6, null
  br i1 %.not3, label %.sink.split, label %9

.sink.split:                                      ; preds = %5, %0, %2
  %.str.10.sink = phi ptr [ @.str.9, %2 ], [ @.str.9, %0 ], [ @.str.10, %5 ]
  %7 = load i32, ptr getelementptr inbounds (%struct._zend_phpdbg_globals, ptr @phpdbg_globals, i64 0, i32 39, i64 1), align 4
  %8 = tail call i32 (i32, i32, ptr, ...) @phpdbg_print(i32 noundef 1, i32 noundef %7, ptr noundef nonnull %.str.10.sink) #25
  br label %9

9:                                                ; preds = %.sink.split, %5
  %.0 = phi i32 [ 0, %5 ], [ -1, %.sink.split ]
  ret i32 %.0
}